target datalayout = "e-m:e-p270:32:32-p271:32:32-p272:64:64-i64:64-i128:128-f80:128-n8:16:32:64-S128"
target triple = "x86_64-pc-linux-gnu"

%struct.Aig_Obj_t_ = type { %union.anon.0, ptr, ptr, i64, i32, i32, %union.anon.1 }
%union.anon.0 = type { ptr }
%union.anon.1 = type { ptr }

; Function Attrs: nounwind uwtable
define internal i32 @Aig_IsComplement(ptr noundef %0) #0 {
  %2 = alloca ptr, align 8
  store ptr %0, ptr %2, align 8
  %3 = load ptr, ptr %2, align 8
  %4 = ptrtoint ptr %3 to i64
  %5 = and i64 %4, 1
  %6 = trunc i64 %5 to i32
  ret i32 %6
}

; Function Attrs: nounwind uwtable
define internal ptr @Aig_Regular(ptr noundef %0) #0 {
  %2 = alloca ptr, align 8
  store ptr %0, ptr %2, align 8
  %3 = load ptr, ptr %2, align 8
  %4 = ptrtoint ptr %3 to i64
  %5 = and i64 %4, -2
  %6 = inttoptr i64 %5 to ptr
  ret ptr %6
}

; Function Attrs: nounwind uwtable
define internal i32 @Aig_ObjFaninC1(ptr noundef %0) #0 {
  %2 = alloca ptr, align 8
  store ptr %0, ptr %2, align 8
  %3 = load ptr, ptr %2, align 8
  %4 = getelementptr inbounds %struct.Aig_Obj_t_, ptr %3, i32 0, i32 2
  %5 = load ptr, ptr %4, align 8
  %6 = call i32 @Aig_IsComplement(ptr noundef %5)
  ret i32 %6
}

; Function Attrs: nounwind uwtable
define internal i32 @Aig_ObjFaninC0(ptr noundef %0) #0 {
  %2 = alloca ptr, align 8
  store ptr %0, ptr %2, align 8
  %3 = load ptr, ptr %2, align 8
  %4 = getelementptr inbounds %struct.Aig_Obj_t_, ptr %3, i32 0, i32 1
  %5 = load ptr, ptr %4, align 8
  %6 = call i32 @Aig_IsComplement(ptr noundef %5)
  ret i32 %6
}

; Function Attrs: nounwind uwtable
define internal ptr @Aig_ObjFanin1(ptr noundef %0) #0 {
  %2 = alloca ptr, align 8
  store ptr %0, ptr %2, align 8
  %3 = load ptr, ptr %2, align 8
  %4 = getelementptr inbounds %struct.Aig_Obj_t_, ptr %3, i32 0, i32 2
  %5 = load ptr, ptr %4, align 8
  %6 = call ptr @Aig_Regular(ptr noundef %5)
  ret ptr %6
}

; Function Attrs: nounwind uwtable
define internal ptr @Aig_ObjFanin0(ptr noundef %0) #0 {
  %2 = alloca ptr, align 8
  store ptr %0, ptr %2, align 8
  %3 = load ptr, ptr %2, align 8
  %4 = getelementptr inbounds %struct.Aig_Obj_t_, ptr %3, i32 0, i32 1
  %5 = load ptr, ptr %4, align 8
  %6 = call ptr @Aig_Regular(ptr noundef %5)
  ret ptr %6
}

; Function Attrs: nounwind uwtable
define ptr @Aig_ManBuildPoBdd_rec(ptr noundef %0, ptr noundef %1, ptr noundef %2) #0 {
  %4 = alloca ptr, align 8
  %5 = alloca ptr, align 8
  %6 = alloca ptr, align 8
  %7 = alloca ptr, align 8
  %8 = alloca ptr, align 8
  %9 = alloca ptr, align 8
  store ptr %0, ptr %5, align 8
  store ptr %1, ptr %6, align 8
  store ptr %2, ptr %7, align 8
  %10 = load ptr, ptr %6, align 8
  %11 = getelementptr inbounds %struct.Aig_Obj_t_, ptr %10, i32 0, i32 6
  %12 = load ptr, ptr %11, align 8
  %13 = icmp ne ptr %12, null
  br i1 %13, label %14, label %18

14:                                               ; preds = %3
  %15 = load ptr, ptr %6, align 8
  %16 = getelementptr inbounds %struct.Aig_Obj_t_, ptr %15, i32 0, i32 6
  %17 = load ptr, ptr %16, align 8
  store ptr %17, ptr %4, align 8
  br label %55

18:                                               ; preds = %3
  %19 = load ptr, ptr %5, align 8
  %20 = load ptr, ptr %6, align 8
  %21 = call ptr @Aig_ObjFanin0(ptr noundef %20)
  %22 = load ptr, ptr %7, align 8
  %23 = call ptr @Aig_ManBuildPoBdd_rec(ptr noundef %19, ptr noundef %21, ptr noundef %22)
  store ptr %23, ptr %8, align 8
  %24 = load ptr, ptr %5, align 8
  %25 = load ptr, ptr %6, align 8
  %26 = call ptr @Aig_ObjFanin1(ptr noundef %25)
  %27 = load ptr, ptr %7, align 8
  %28 = call ptr @Aig_ManBuildPoBdd_rec(ptr noundef %24, ptr noundef %26, ptr noundef %27)
  store ptr %28, ptr %9, align 8
  %29 = load ptr, ptr %8, align 8
  %30 = ptrtoint ptr %29 to i64
  %31 = load ptr, ptr %6, align 8
  %32 = call i32 @Aig_ObjFaninC0(ptr noundef %31)
  %33 = sext i32 %32 to i64
  %34 = xor i64 %30, %33
  %35 = inttoptr i64 %34 to ptr
  store ptr %35, ptr %8, align 8
  %36 = load ptr, ptr %9, align 8
  %37 = ptrtoint ptr %36 to i64
  %38 = load ptr, ptr %6, align 8
  %39 = call i32 @Aig_ObjFaninC1(ptr noundef %38)
  %40 = sext i32 %39 to i64
  %41 = xor i64 %37, %40
  %42 = inttoptr i64 %41 to ptr
  store ptr %42, ptr %9, align 8
  %43 = load ptr, ptr %7, align 8
  %44 = load ptr, ptr %8, align 8
  %45 = load ptr, ptr %9, align 8
  %46 = call ptr @Cudd_bddAnd(ptr noundef %43, ptr noundef %44, ptr noundef %45)
  %47 = load ptr, ptr %6, align 8
  %48 = getelementptr inbounds %struct.Aig_Obj_t_, ptr %47, i32 0, i32 6
  store ptr %46, ptr %48, align 8
  %49 = load ptr, ptr %6, align 8
  %50 = getelementptr inbounds %struct.Aig_Obj_t_, ptr %49, i32 0, i32 6
  %51 = load ptr, ptr %50, align 8
  call void @Cudd_Ref(ptr noundef %51)
  %52 = load ptr, ptr %6, align 8
  %53 = getelementptr inbounds %struct.Aig_Obj_t_, ptr %52, i32 0, i32 6
  %54 = load ptr, ptr %53, align 8
  store ptr %54, ptr %4, align 8
  br label %55

55:                                               ; preds = %18, %14
  %56 = load ptr, ptr %4, align 8
  ret ptr %56
}