; Function Attrs: nounwind uwtable
define ptr @Aig_ManBuildPoBdd_rec(ptr noundef %0, ptr noundef captures(none) %1, ptr noundef %2) local_unnamed_addr #0 {
  %4 = getelementptr inbounds nuw i8, ptr %1, i64 40
  %5 = load ptr, ptr %4, align 8
  %.not = icmp eq ptr %5, null
  br i1 %.not, label %6, label %common.ret23

common.ret23:                                     ; preds = %3, %6
  %common.ret23.op = phi ptr [ %28, %6 ], [ %5, %3 ]
  ret ptr %common.ret23.op

6:                                                ; preds = %3
  %7 = getelementptr i8, ptr %1, i64 8
  %.val = load ptr, ptr %7, align 8
  %8 = ptrtoint ptr %.val to i64
  %9 = and i64 %8, -2
  %10 = inttoptr i64 %9 to ptr
  %11 = tail call ptr @Aig_ManBuildPoBdd_rec(ptr noundef %0, ptr noundef %10, ptr noundef %2)
  %12 = getelementptr i8, ptr %1, i64 16
  %.val21 = load ptr, ptr %12, align 8
  %13 = ptrtoint ptr %.val21 to i64
  %14 = and i64 %13, -2
  %15 = inttoptr i64 %14 to ptr
  %16 = tail call ptr @Aig_ManBuildPoBdd_rec(ptr noundef %0, ptr noundef %15, ptr noundef %2)
  %17 = ptrtoint ptr %11 to i64
  %.val20 = load ptr, ptr %7, align 8
  %18 = ptrtoint ptr %.val20 to i64
  %19 = and i64 %18, 1
  %20 = xor i64 %19, %17
  %21 = inttoptr i64 %20 to ptr
  %22 = ptrtoint ptr %16 to i64
  %.val22 = load ptr, ptr %12, align 8
  %23 = ptrtoint ptr %.val22 to i64
  %24 = and i64 %23, 1
  %25 = xor i64 %24, %22
  %26 = inttoptr i64 %25 to ptr
  %27 = tail call ptr @Cudd_bddAnd(ptr noundef %2, ptr noundef %21, ptr noundef %26) #14
  store ptr %27, ptr %4, align 8
  tail call void @Cudd_Ref(ptr noundef %27) #14
  %28 = load ptr, ptr %4, align 8
  br label %common.ret23
}